EXPORTS
    DllMain@12 @1
    _Z15WFP_CreateErroriPKc @2
    _Z16WFP_DisplayErrorP9WFP_Error @3
    _ZN10WFP_Window14getEventHolderEv @4
    _ZN10WFP_Window5closeEv @5
    _ZN10WFP_Window5isRunEv @6
    _ZN10WFP_Window7WndProcEP6HWND__jjl@16 @7
    _ZN10WFP_Window8getErrorEv @8
    _ZN10WFP_WindowC1E8WFP_Size @9
    _ZN10WFP_WindowC1E8WFP_Size7WFP_PosPKc @10
    _ZN10WFP_WindowC1E8WFP_SizePKc @11
    _ZN10WFP_WindowC1Ev @12
    _ZN10WFP_WindowC2E8WFP_Size @13
    _ZN10WFP_WindowC2E8WFP_Size7WFP_PosPKc @14
    _ZN10WFP_WindowC2E8WFP_SizePKc @15
    _ZN10WFP_WindowC2Ev @16
    _ZN15WFP_EventHolderC1Eiic @17
    _ZN15WFP_EventHolderC2Eiic @18
    _ZN15WFP_EventSystem6eventhE @19 DATA
    _ZN15WFP_EventSystem8getEventEv @20
    _ZN15WFP_EventSystem8setEventE15WFP_EventHolder @21
    _ZN15WFP_EventSystemC1Ev @22
    _ZN15WFP_EventSystemC2Ev @23
    _ZN7WFP_PosC1Eii @24
    _ZN7WFP_PosC1Ev @25
    _ZN7WFP_PosC2Eii @26
    _ZN7WFP_PosC2Ev @27
    _ZN8WFP_SizeC1Eii @28
    _ZN8WFP_SizeC1Ev @29
    _ZN8WFP_SizeC2Eii @30
    _ZN8WFP_SizeC2Ev @31
    _ZN9WFP_Vec2iC1Eii @32
    _ZN9WFP_Vec2iC1Ev @33
    _ZN9WFP_Vec2iC2Eii @34
    _ZN9WFP_Vec2iC2Ev @35
    _ZN9WFP_Vec3iC1Eiii @36
    _ZN9WFP_Vec3iC1Ev @37
    _ZN9WFP_Vec3iC2Eiii @38
    _ZN9WFP_Vec3iC2Ev @39
    _ZN9WFP_Vec4iC1ER9WFP_Vec2iS1_ @40
    _ZN9WFP_Vec4iC1ER9WFP_Vec3ii @41
    _ZN9WFP_Vec4iC1Eiiii @42
    _ZN9WFP_Vec4iC1Ev @43
    _ZN9WFP_Vec4iC2ER9WFP_Vec2iS1_ @44
    _ZN9WFP_Vec4iC2ER9WFP_Vec3ii @45
    _ZN9WFP_Vec4iC2Eiiii @46
    _ZN9WFP_Vec4iC2Ev @47
